; Function Attrs: nofree norecurse nosync nounwind memory(argmem: readwrite) uwtable
define internal void @h264_h_loop_filter_luma_mbaff_8_c(ptr noundef captures(none) %0, i64 noundef %1, i32 noundef %2, i32 noundef %3, ptr noundef readonly captures(none) %4) #1 {
  %6 = shl nsw i64 %1, 1
  br label %7

7:                                                ; preds = %5, %.loopexit
  %indvars.iv = phi i64 [ 0, %5 ], [ %indvars.iv.next, %.loopexit ]
  %.099.i7 = phi ptr [ %0, %5 ], [ %.1100.i, %.loopexit ]
  %8 = getelementptr inbounds nuw i8, ptr %4, i64 %indvars.iv
  %9 = load i8, ptr %8, align 1, !tbaa !42
  %10 = sext i8 %9 to i32
  %11 = icmp slt i8 %9, 0
  br i1 %11, label %14, label %.preheader

.preheader:                                       ; preds = %7
  %.not.i = icmp eq i8 %9, 0
  %12 = sub nsw i32 0, %10
  %13 = add nuw nsw i32 %10, 1
  br label %16

14:                                               ; preds = %7
  %15 = getelementptr inbounds i8, ptr %.099.i7, i64 %6
  br label %.loopexit

16:                                               ; preds = %.preheader, %92
  %.2.i5 = phi ptr [ %.099.i7, %.preheader ], [ %93, %92 ]
  %17 = phi i1 [ true, %.preheader ], [ false, %92 ]
  %18 = getelementptr inbounds i8, ptr %.2.i5, i64 -1
  %19 = load i8, ptr %18, align 1, !tbaa !42
  %20 = zext i8 %19 to i32
  %21 = getelementptr inbounds i8, ptr %.2.i5, i64 -2
  %22 = load i8, ptr %21, align 1, !tbaa !42
  %23 = zext i8 %22 to i32
  %24 = getelementptr inbounds i8, ptr %.2.i5, i64 -3
  %25 = load i8, ptr %24, align 1, !tbaa !42
  %26 = zext i8 %25 to i32
  %27 = load i8, ptr %.2.i5, align 1, !tbaa !42
  %28 = zext i8 %27 to i32
  %29 = getelementptr inbounds nuw i8, ptr %.2.i5, i64 1
  %30 = load i8, ptr %29, align 1, !tbaa !42
  %31 = zext i8 %30 to i32
  %32 = getelementptr inbounds nuw i8, ptr %.2.i5, i64 2
  %33 = load i8, ptr %32, align 1, !tbaa !42
  %34 = zext i8 %33 to i32
  %35 = sub nsw i32 %20, %28
  %36 = tail call i32 @llvm.abs.i32(i32 %35, i1 true)
  %37 = icmp slt i32 %36, %2
  br i1 %37, label %38, label %92

38:                                               ; preds = %16
  %39 = sub nsw i32 %23, %20
  %40 = tail call i32 @llvm.abs.i32(i32 %39, i1 true)
  %41 = icmp slt i32 %40, %3
  br i1 %41, label %42, label %92

42:                                               ; preds = %38
  %43 = sub nsw i32 %31, %28
  %44 = tail call i32 @llvm.abs.i32(i32 %43, i1 true)
  %45 = icmp samesign ult i32 %44, %3
  br i1 %45, label %46, label %92

46:                                               ; preds = %42
  %47 = sub nsw i32 %26, %20
  %48 = tail call i32 @llvm.abs.i32(i32 %47, i1 true)
  %49 = icmp samesign uge i32 %48, %3
  %brmerge = or i1 %49, %.not.i
  %.mux = select i1 %49, i32 %10, i32 %13
  br i1 %brmerge, label %60, label %50

50:                                               ; preds = %46
  %51 = add nuw nsw i32 %20, 1
  %52 = add nuw nsw i32 %51, %28
  %53 = lshr i32 %52, 1
  %54 = add nuw nsw i32 %53, %26
  %55 = lshr i32 %54, 1
  %56 = sub nsw i32 %55, %23
  %57 = icmp slt i32 %56, %12
  %..i118.i = tail call i32 @llvm.smin.i32(i32 %56, i32 %10)
  %.0.i119.i = select i1 %57, i32 %12, i32 %..i118.i
  %58 = trunc i32 %.0.i119.i to i8
  %59 = add i8 %22, %58
  store i8 %59, ptr %21, align 1, !tbaa !42
  br label %60

60:                                               ; preds = %46, %50
  %.0.i = phi i32 [ %.mux, %46 ], [ %13, %50 ]
  %61 = sub nsw i32 %34, %28
  %62 = tail call i32 @llvm.abs.i32(i32 %61, i1 true)
  %63 = icmp samesign ult i32 %62, %3
  br i1 %63, label %64, label %77

64:                                               ; preds = %60
  br i1 %.not.i, label %75, label %65

65:                                               ; preds = %64
  %66 = add nuw nsw i32 %20, 1
  %67 = add nuw nsw i32 %66, %28
  %68 = lshr i32 %67, 1
  %69 = add nuw nsw i32 %68, %34
  %70 = lshr i32 %69, 1
  %71 = sub nsw i32 %70, %31
  %72 = icmp slt i32 %71, %12
  %..i116.i = tail call i32 @llvm.smin.i32(i32 %71, i32 %10)
  %.0.i117.i = select i1 %72, i32 %12, i32 %..i116.i
  %73 = trunc i32 %.0.i117.i to i8
  %74 = add i8 %30, %73
  store i8 %74, ptr %29, align 1, !tbaa !42
  br label %75

75:                                               ; preds = %65, %64
  %76 = add nuw nsw i32 %.0.i, 1
  br label %77

77:                                               ; preds = %75, %60
  %.1.i = phi i32 [ %76, %75 ], [ %.0.i, %60 ]
  %78 = sub nsw i32 %28, %20
  %79 = shl nsw i32 %78, 2
  %80 = add nuw nsw i32 %23, 4
  %81 = sub nsw i32 %80, %31
  %82 = add nsw i32 %81, %79
  %83 = ashr i32 %82, 3
  %84 = sub nsw i32 0, %.1.i
  %85 = icmp slt i32 %83, %84
  %..i.i = tail call i32 @llvm.smin.i32(i32 %83, i32 %.1.i)
  %.0.i.i = select i1 %85, i32 %84, i32 %..i.i
  %86 = add nsw i32 %.0.i.i, %20
  %.not.i121.i = icmp ult i32 %86, 256
  %isnotneg.i122.i = icmp sgt i32 %86, -1
  %87 = sext i1 %isnotneg.i122.i to i8
  %88 = trunc nuw i32 %86 to i8
  %.0.i123.i = select i1 %.not.i121.i, i8 %88, i8 %87
  store i8 %.0.i123.i, ptr %18, align 1, !tbaa !42
  %89 = sub nsw i32 %28, %.0.i.i
  %.not.i.i = icmp ult i32 %89, 256
  %isnotneg.i.i = icmp sgt i32 %89, -1
  %90 = sext i1 %isnotneg.i.i to i8
  %91 = trunc nuw i32 %89 to i8
  %.0.i120.i = select i1 %.not.i.i, i8 %91, i8 %90
  store i8 %.0.i120.i, ptr %.2.i5, align 1, !tbaa !42
  br label %92

92:                                               ; preds = %77, %42, %38, %16
  %93 = getelementptr inbounds i8, ptr %.2.i5, i64 %1
  br i1 %17, label %16, label %.loopexit, !llvm.loop !109

.loopexit:                                        ; preds = %92, %14
  %.1100.i = phi ptr [ %15, %14 ], [ %93, %92 ]
  %indvars.iv.next = add nuw nsw i64 %indvars.iv, 1
  %exitcond.not = icmp eq i64 %indvars.iv.next, 4
  br i1 %exitcond.not, label %h264_loop_filter_luma_8_c.exit, label %7, !llvm.loop !110

h264_loop_filter_luma_8_c.exit:                   ; preds = %.loopexit
  ret void
}